; Function Attrs: mustprogress nounwind uwtable
define hidden void @_ZN6vframeC2EPK5framePK11RegisterMapP10JavaThread(ptr noundef nonnull align 8 dereferenceable(5064) %0, ptr nocapture noundef readonly %1, ptr noundef %2, ptr noundef %3) unnamed_addr #0 align 2 {
  store ptr getelementptr inbounds inrange(-16, 48) (i8, ptr @_ZTV6vframe, i64 16), ptr %0, align 8
  %5 = getelementptr inbounds i8, ptr %0, i64 8
  %6 = getelementptr inbounds i8, ptr %0, i64 48
  %7 = getelementptr inbounds i8, ptr %0, i64 40
  tail call void @llvm.memset.p0.i64(ptr noundef nonnull align 8 dereferenceable(24) %5, i8 0, i64 24, i1 false)
  tail call void @llvm.memset.p0.i64(ptr noundef nonnull align 8 dereferenceable(16) %6, i8 0, i64 16, i1 false)
  store i32 2, ptr %7, align 8
  %8 = getelementptr inbounds i8, ptr %0, i64 32
  store ptr null, ptr %8, align 8
  %9 = getelementptr inbounds i8, ptr %0, i64 44
  store i8 0, ptr %9, align 4
  %10 = getelementptr inbounds i8, ptr %0, i64 64
  tail call void @_ZN11RegisterMapC1EPKS_(ptr noundef nonnull align 8 dereferenceable(4983) %10, ptr noundef %2) #11
  %11 = getelementptr inbounds i8, ptr %0, i64 5048
  store ptr %3, ptr %11, align 8
  %12 = tail call align 8 ptr @llvm.threadlocal.address.p0(ptr align 8 @_ZN6Thread12_thr_currentE)
  %13 = load ptr, ptr %12, align 8
  %14 = getelementptr inbounds i8, ptr %2, i64 4968
  %.sroa.0.0.copyload.i = load ptr, ptr %14, align 8
  %15 = icmp eq ptr %.sroa.0.0.copyload.i, null
  br i1 %15, label %_ZN16stackChunkHandleC2EP6ThreadP17stackChunkOopDesc.exit, label %_ZNK16stackChunkHandleclEv.exit

_ZNK16stackChunkHandleclEv.exit:                  ; preds = %4
  %16 = load ptr, ptr %.sroa.0.0.copyload.i, align 8
  %17 = icmp eq ptr %16, null
  br i1 %17, label %_ZN16stackChunkHandleC2EP6ThreadP17stackChunkOopDesc.exit, label %18

18:                                               ; preds = %_ZNK16stackChunkHandleclEv.exit
  %19 = getelementptr inbounds i8, ptr %13, i64 808
  %20 = load ptr, ptr %19, align 8
  %21 = getelementptr inbounds i8, ptr %20, i64 40
  %22 = load ptr, ptr %21, align 8
  %23 = getelementptr inbounds i8, ptr %20, i64 32
  %24 = load ptr, ptr %23, align 8
  %25 = ptrtoint ptr %22 to i64
  %26 = ptrtoint ptr %24 to i64
  %27 = sub i64 %25, %26
  %.not.i.i.i.i.i = icmp ult i64 %27, 8
  br i1 %.not.i.i.i.i.i, label %30, label %28

28:                                               ; preds = %18
  %29 = getelementptr inbounds i8, ptr %24, i64 8
  store ptr %29, ptr %23, align 8
  br label %_ZN10HandleArea15allocate_handleEP7oopDesc.exit.i.i

30:                                               ; preds = %18
  %31 = tail call noundef ptr @_ZN5Arena4growEmN17AllocFailStrategy13AllocFailEnumE(ptr noundef nonnull align 8 dereferenceable(48) %20, i64 noundef 8, i32 noundef 0) #11
  br label %_ZN10HandleArea15allocate_handleEP7oopDesc.exit.i.i

_ZN10HandleArea15allocate_handleEP7oopDesc.exit.i.i: ; preds = %30, %28
  %.0.i.i.i.i.i = phi ptr [ %24, %28 ], [ %31, %30 ]
  store ptr %16, ptr %.0.i.i.i.i.i, align 8
  br label %_ZN16stackChunkHandleC2EP6ThreadP17stackChunkOopDesc.exit

_ZN16stackChunkHandleC2EP6ThreadP17stackChunkOopDesc.exit: ; preds = %4, %_ZNK16stackChunkHandleclEv.exit, %_ZN10HandleArea15allocate_handleEP7oopDesc.exit.i.i
  %storemerge.i.i = phi ptr [ %.0.i.i.i.i.i, %_ZN10HandleArea15allocate_handleEP7oopDesc.exit.i.i ], [ null, %_ZNK16stackChunkHandleclEv.exit ], [ null, %4 ]
  %32 = getelementptr inbounds i8, ptr %0, i64 5056
  store ptr %storemerge.i.i, ptr %32, align 8
  tail call void @llvm.memcpy.p0.p0.i64(ptr noundef nonnull align 8 dereferenceable(56) %5, ptr noundef nonnull align 8 dereferenceable(56) %1, i64 56, i1 false)
  ret void
}